Certificate:
    Data:
        Version: 3 (0x2)
        Serial Number: 11858508931404716699 (0xa491e30b462cda9b)
    Signature Algorithm: sha1WithRSAEncryption
        Issuer: C=UA, ST=Zaporozhye, O=SiriPort.Ru, OU=SiriPort.Ru, CN=SiriPort.Ru (Original), CN=SiriPort.Ru (Original)/emailAddress=gdimaits@me.com
        Validity
            Not Before: Jun  1 01:20:52 2012 GMT
            Not After : Jun  1 01:20:52 2015 GMT
        Subject: C=UA, ST=Zaporozhye, O=SiriPort.Ru, OU=SiriPort.Ru, CN=SiriPort.Ru (Original), CN=SiriPort.Ru (Original)/emailAddress=gdimaits@me.com
        Subject Public Key Info:
            Public Key Algorithm: rsaEncryption
                Public-Key: (1024 bit)
                Modulus:
                    00:c3:46:d7:c6:81:14:2f:4e:17:32:1f:03:63:7c:
                    43:bc:eb:ef:bd:6f:c7:42:d6:d1:93:cd:f8:03:f4:
                    6c:84:10:dd:41:cd:75:2b:84:18:30:f8:f6:ae:6b:
                    18:9d:ac:ae:a2:06:ff:f5:f6:1a:1f:27:c1:65:5a:
                    ae:1d:48:c6:3b:96:c4:da:54:43:6a:dd:a9:6d:d6:
                    59:0e:18:eb:fb:7a:b3:09:d3:90:2f:9a:a5:ca:da:
                    3f:fa:fd:31:0b:54:f3:9e:42:9e:90:80:c8:e9:b8:
                    fb:ed:9a:9d:93:91:82:7b:a0:11:92:16:86:94:ff:
                    76:74:66:66:1c:a5:aa:14:77
                Exponent: 65537 (0x10001)
        X509v3 extensions:
            X509v3 Subject Key Identifier: 
                30:36:E8:5D:0E:E7:F1:22:51:71:40:8D:20:15:E1:8B:77:4D:A9:2B
            X509v3 Authority Key Identifier: 
                keyid:30:36:E8:5D:0E:E7:F1:22:51:71:40:8D:20:15:E1:8B:77:4D:A9:2B

            X509v3 Basic Constraints: 
                CA:TRUE
    Signature Algorithm: sha1WithRSAEncryption
         29:e5:bf:86:9f:12:7a:e7:c4:7e:5d:c5:da:02:8e:45:5f:8d:
         42:e9:3d:8e:64:b5:42:d1:13:80:98:3f:c7:e4:9c:03:03:45:
         a6:a1:3f:b6:3b:2c:bc:3f:0f:6d:8b:84:bf:7b:6c:0e:f3:12:
         d7:9e:36:ef:3a:3b:a7:b2:f1:c9:21:4d:b1:42:f7:1a:e6:da:
         2c:25:18:d3:3b:28:8a:66:62:bb:d8:a7:92:23:76:e3:02:6f:
         90:cb:92:1c:99:2e:87:4e:19:55:90:6a:d9:80:ab:eb:c3:bc:
         c5:10:47:32:92:33:9a:e5:ed:24:2a:92:51:7b:1d:07:d1:30:
         1d:bf
-----BEGIN CERTIFICATE-----
MIIDMDCCApmgAwIBAgIJAKSR4wtGLNqbMA0GCSqGSIb3DQEBBQUAMIGwMQswCQYD
VQQGEwJVQTETMBEGA1UECAwKWmFwb3Jvemh5ZTEUMBIGA1UECgwLU2lyaVBvcnQu
UnUxFDASBgNVBAsMC1NpcmlQb3J0LlJ1MR8wHQYDVQQDDBZTaXJpUG9ydC5SdSAo
T3JpZ2luYWwpMR8wHQYDVQQDDBZTaXJpUG9ydC5SdSAoT3JpZ2luYWwpMR4wHAYJ
KoZIhvcNAQkBFg9nZGltYWl0c0BtZS5jb20wHhcNMTIwNjAxMDEyMDUyWhcNMTUw
NjAxMDEyMDUyWjCBsDELMAkGA1UEBhMCVUExEzARBgNVBAgMClphcG9yb3poeWUx
FDASBgNVBAoMC1NpcmlQb3J0LlJ1MRQwEgYDVQQLDAtTaXJpUG9ydC5SdTEfMB0G
A1UEAwwWU2lyaVBvcnQuUnUgKE9yaWdpbmFsKTEfMB0GA1UEAwwWU2lyaVBvcnQu
UnUgKE9yaWdpbmFsKTEeMBwGCSqGSIb3DQEJARYPZ2RpbWFpdHNAbWUuY29tMIGf
MA0GCSqGSIb3DQEBAQUAA4GNADCBiQKBgQDDRtfGgRQvThcyHwNjfEO86++9b8dC
1tGTzfgD9GyEEN1BzXUrhBgw+PauaxidrK6iBv/19hofJ8FlWq4dSMY7lsTaVENq
3alt1lkOGOv7erMJ05AvmqXK2j/6/TELVPOeQp6QgMjpuPvtmp2TkYJ7oBGSFoaU
/3Z0ZmYcpaoUdwIDAQABo1AwTjAdBgNVHQ4EFgQUMDboXQ7n8SJRcUCNIBXhi3dN
qSswHwYDVR0jBBgwFoAUMDboXQ7n8SJRcUCNIBXhi3dNqSswDAYDVR0TBAUwAwEB
/zANBgkqhkiG9w0BAQUFAAOBgQAp5b+GnxJ658R+XcXaAo5FX41C6T2OZLVC0ROA
mD/H5JwDA0WmoT+2Oyy8Pw9ti4S/e2wO8xLXnjbvOjunsvHJIU2xQvca5tosJRjT
OyiKZmK72KeSI3bjAm+Qy5IcmS6HThlVkGrZgKvrw7zFEEcykjOa5e0kKpJRex0H
0TAdvw==
-----END CERTIFICATE-----
